; Function Attrs: mustprogress uwtable
define hidden noundef float @_ZNK11z3_replayer9get_floatEj(ptr noundef nonnull readonly align 8 captures(none) dereferenceable(8) %0, i32 noundef %1) local_unnamed_addr #5 align 2 {
  %3 = load ptr, ptr %0, align 8, !tbaa !17
  %4 = getelementptr inbounds nuw i8, ptr %3, i64 136
  %5 = load ptr, ptr %4, align 8, !tbaa !69
  %6 = icmp eq ptr %5, null
  br i1 %6, label %_ZNK6vectorIN11z3_replayer3imp5valueELb0EjE4sizeEv.exit.thread.i, label %_ZNK6vectorIN11z3_replayer3imp5valueELb0EjE4sizeEv.exit.i

_ZNK6vectorIN11z3_replayer3imp5valueELb0EjE4sizeEv.exit.i: ; preds = %2
  %7 = getelementptr inbounds i8, ptr %5, i64 -4
  %8 = load i32, ptr %7, align 4, !tbaa !70
  %.not.i = icmp ult i32 %1, %8
  br i1 %.not.i, label %9, label %_ZNK6vectorIN11z3_replayer3imp5valueELb0EjE4sizeEv.exit.thread.i

9:                                                ; preds = %_ZNK6vectorIN11z3_replayer3imp5valueELb0EjE4sizeEv.exit.i
  %10 = zext i32 %1 to i64
  %11 = getelementptr inbounds nuw %"struct.z3_replayer::imp::value", ptr %5, i64 %10
  %12 = load i32, ptr %11, align 8, !tbaa !71
  %.not3.i = icmp eq i32 %12, 10
  br i1 %.not3.i, label %_ZNK11z3_replayer3imp9get_floatEj.exit, label %_ZNK6vectorIN11z3_replayer3imp5valueELb0EjE4sizeEv.exit.thread.i

_ZNK6vectorIN11z3_replayer3imp5valueELb0EjE4sizeEv.exit.thread.i: ; preds = %9, %_ZNK6vectorIN11z3_replayer3imp5valueELb0EjE4sizeEv.exit.i, %2
  tail call void @_Z23throw_invalid_referencev()
  unreachable

_ZNK11z3_replayer3imp9get_floatEj.exit:           ; preds = %9
  %13 = getelementptr inbounds nuw %"struct.z3_replayer::imp::value", ptr %5, i64 %10, i32 1
  %14 = load float, ptr %13, align 8, !tbaa !3
  ret float %14
}